target datalayout = "e-m:e-p270:32:32-p271:32:32-p272:64:64-i64:64-i128:128-f80:128-n8:16:32:64-S128"
target triple = "x86_64-pc-linux-gnu"

; Function Attrs: mustprogress nounwind uwtable
define hidden noundef i32 @_ZN6google16posix_strerror_rEiPcm(i32 noundef %0, ptr noundef %1, i64 noundef %2) #2 {
  %4 = alloca i32, align 4
  %5 = alloca i32, align 4
  %6 = alloca ptr, align 8
  %7 = alloca i64, align 8
  %8 = alloca i32, align 4
  %9 = alloca ptr, align 8
  %10 = alloca i32, align 4
  store i32 %0, ptr %5, align 4, !tbaa !11
  store ptr %1, ptr %6, align 8, !tbaa !9
  store i64 %2, ptr %7, align 8, !tbaa !13
  %11 = load ptr, ptr %6, align 8, !tbaa !9
  %12 = icmp eq ptr %11, null
  br i1 %12, label %16, label %13

13:                                               ; preds = %3
  %14 = load i64, ptr %7, align 8, !tbaa !13
  %15 = icmp ule i64 %14, 0
  br i1 %15, label %16, label %18

16:                                               ; preds = %13, %3
  %17 = call ptr @__errno_location() #36
  store i32 22, ptr %17, align 4, !tbaa !11
  store i32 -1, ptr %4, align 4
  br label %58

18:                                               ; preds = %13
  %19 = load ptr, ptr %6, align 8, !tbaa !9
  %20 = getelementptr inbounds i8, ptr %19, i64 0
  store i8 0, ptr %20, align 1, !tbaa !77
  call void @llvm.lifetime.start.p0(i64 4, ptr %8) #5
  %21 = call ptr @__errno_location() #36
  %22 = load i32, ptr %21, align 4, !tbaa !11
  store i32 %22, ptr %8, align 4, !tbaa !11
  %23 = call ptr @__errno_location() #36
  store i32 0, ptr %23, align 4, !tbaa !11
  call void @llvm.lifetime.start.p0(i64 8, ptr %9) #5
  %24 = load i32, ptr %5, align 4, !tbaa !11
  %25 = load ptr, ptr %6, align 8, !tbaa !9
  %26 = load i64, ptr %7, align 8, !tbaa !13
  %27 = call ptr @strerror_r(i32 noundef %24, ptr noundef %25, i64 noundef %26) #5
  store ptr %27, ptr %9, align 8, !tbaa !9
  %28 = call ptr @__errno_location() #36
  %29 = load i32, ptr %28, align 4, !tbaa !11
  %30 = icmp ne i32 %29, 0
  br i1 %30, label %31, label %34

31:                                               ; preds = %18
  %32 = load ptr, ptr %6, align 8, !tbaa !9
  %33 = getelementptr inbounds i8, ptr %32, i64 0
  store i8 0, ptr %33, align 1, !tbaa !77
  store i32 -1, ptr %4, align 4
  store i32 1, ptr %10, align 4
  br label %57

34:                                               ; preds = %18
  %35 = load i32, ptr %8, align 4, !tbaa !11
  %36 = call ptr @__errno_location() #36
  store i32 %35, ptr %36, align 4, !tbaa !11
  %37 = load ptr, ptr %6, align 8, !tbaa !9
  %38 = load i64, ptr %7, align 8, !tbaa !13
  %39 = sub i64 %38, 1
  %40 = getelementptr inbounds nuw i8, ptr %37, i64 %39
  store i8 0, ptr %40, align 1, !tbaa !77
  %41 = load ptr, ptr %9, align 8, !tbaa !9
  %42 = icmp ne ptr %41, null
  br i1 %42, label %44, label %43

43:                                               ; preds = %34
  store i32 0, ptr %4, align 4
  store i32 1, ptr %10, align 4
  br label %57

44:                                               ; preds = %34
  %45 = load ptr, ptr %9, align 8, !tbaa !9
  %46 = load ptr, ptr %6, align 8, !tbaa !9
  %47 = icmp eq ptr %45, %46
  br i1 %47, label %48, label %49

48:                                               ; preds = %44
  store i32 0, ptr %4, align 4
  store i32 1, ptr %10, align 4
  br label %57

49:                                               ; preds = %44
  %50 = load ptr, ptr %6, align 8, !tbaa !9
  %51 = getelementptr inbounds i8, ptr %50, i64 0
  store i8 0, ptr %51, align 1, !tbaa !77
  %52 = load ptr, ptr %6, align 8, !tbaa !9
  %53 = load ptr, ptr %9, align 8, !tbaa !9
  %54 = load i64, ptr %7, align 8, !tbaa !13
  %55 = sub i64 %54, 1
  %56 = call ptr @strncat(ptr noundef %52, ptr noundef %53, i64 noundef %55) #5
  store i32 0, ptr %4, align 4
  store i32 1, ptr %10, align 4
  br label %57

57:                                               ; preds = %49, %48, %43, %31
  call void @llvm.lifetime.end.p0(i64 8, ptr %9) #5
  call void @llvm.lifetime.end.p0(i64 4, ptr %8) #5
  br label %58

58:                                               ; preds = %57, %16
  %59 = load i32, ptr %4, align 4
  ret i32 %59
}