; Function Attrs: mustprogress nounwind uwtable
define hidden noundef range(i32 -1, 1) i32 @_ZN6google16posix_strerror_rEiPcm(i32 noundef %0, ptr noundef %1, i64 noundef %2) local_unnamed_addr #2 {
  %4 = icmp eq ptr %1, null
  %5 = icmp eq i64 %2, 0
  %or.cond = or i1 %4, %5
  br i1 %or.cond, label %6, label %8

6:                                                ; preds = %3
  %7 = tail call ptr @__errno_location() #54
  store i32 22, ptr %7, align 4, !tbaa !97
  br label %20

8:                                                ; preds = %3
  store i8 0, ptr %1, align 1, !tbaa !51
  %9 = tail call ptr @__errno_location() #54
  %10 = load i32, ptr %9, align 4, !tbaa !97
  store i32 0, ptr %9, align 4, !tbaa !97
  %11 = tail call ptr @strerror_r(i32 noundef %0, ptr noundef nonnull %1, i64 noundef %2) #49
  %12 = load i32, ptr %9, align 4, !tbaa !97
  %.not = icmp eq i32 %12, 0
  br i1 %.not, label %14, label %13

13:                                               ; preds = %8
  store i8 0, ptr %1, align 1, !tbaa !51
  br label %20

14:                                               ; preds = %8
  store i32 %10, ptr %9, align 4, !tbaa !97
  %15 = add i64 %2, -1
  %16 = getelementptr inbounds nuw i8, ptr %1, i64 %15
  store i8 0, ptr %16, align 1, !tbaa !51
  %.not21 = icmp eq ptr %11, null
  %17 = icmp eq ptr %11, %1
  %or.cond22 = or i1 %.not21, %17
  br i1 %or.cond22, label %20, label %18

18:                                               ; preds = %14
  store i8 0, ptr %1, align 1, !tbaa !51
  %19 = tail call ptr @strncat(ptr noundef nonnull dereferenceable(1) %1, ptr noundef nonnull %11, i64 noundef %15) #49
  br label %20

20:                                               ; preds = %13, %18, %14, %6
  %.0 = phi i32 [ -1, %6 ], [ -1, %13 ], [ 0, %18 ], [ 0, %14 ]
  ret i32 %.0
}